; Function Attrs: nounwind uwtable
define dso_local range(i64 0, 2) i64 @range_gist_consistent(ptr noundef %0) local_unnamed_addr #0 {
  %2 = getelementptr inbounds nuw i8, ptr %0, i64 32
  %3 = load i64, ptr %2, align 8
  %4 = inttoptr i64 %3 to ptr
  %5 = getelementptr inbounds nuw i8, ptr %0, i64 48
  %6 = load i64, ptr %5, align 8
  %7 = getelementptr inbounds nuw i8, ptr %0, i64 64
  %8 = load i64, ptr %7, align 8
  %9 = trunc i64 %8 to i16
  %10 = getelementptr inbounds nuw i8, ptr %0, i64 80
  %11 = load i64, ptr %10, align 8
  %12 = trunc i64 %11 to i32
  %13 = getelementptr inbounds nuw i8, ptr %0, i64 96
  %14 = load i64, ptr %13, align 8
  %15 = inttoptr i64 %14 to ptr
  %16 = load i64, ptr %4, align 8
  %17 = inttoptr i64 %16 to ptr
  %18 = tail call ptr @pg_detoast_datum(ptr noundef %17) #10
  store i8 0, ptr %15, align 1
  %19 = getelementptr inbounds nuw i8, ptr %18, i64 4
  %20 = load i32, ptr %19, align 4
  %21 = tail call ptr @range_get_typcache(ptr noundef %0, i32 noundef %20) #10
  %22 = getelementptr inbounds nuw i8, ptr %4, i64 16
  %23 = load ptr, ptr %22, align 8
  %24 = getelementptr inbounds nuw i8, ptr %23, i64 16
  %25 = load i16, ptr %24, align 4
  %26 = zext i16 %25 to i64
  %27 = getelementptr inbounds nuw i8, ptr %23, i64 %26
  %28 = getelementptr inbounds nuw i8, ptr %27, i64 12
  %29 = load i16, ptr %28, align 4
  %30 = and i16 %29, 1
  %.not = icmp eq i16 %30, 0
  br i1 %.not, label %47, label %31

31:                                               ; preds = %1
  switch i32 %12, label %40 [
    i32 3831, label %32
    i32 0, label %32
    i32 4537, label %36
  ]

32:                                               ; preds = %31, %31
  %33 = inttoptr i64 %6 to ptr
  %34 = tail call ptr @pg_detoast_datum(ptr noundef %33) #10
  %35 = tail call fastcc zeroext i1 @range_gist_consistent_leaf_range(ptr noundef %21, i16 noundef zeroext %9, ptr noundef nonnull %18, ptr noundef %34)
  br label %63

36:                                               ; preds = %31
  %37 = inttoptr i64 %6 to ptr
  %38 = tail call ptr @pg_detoast_datum(ptr noundef %37) #10
  %39 = tail call fastcc zeroext i1 @range_gist_consistent_leaf_multirange(ptr noundef %21, i16 noundef zeroext %9, ptr noundef nonnull %18, ptr noundef %38)
  br label %63

40:                                               ; preds = %31
  %cond.i = icmp eq i16 %9, 16
  br i1 %cond.i, label %range_gist_consistent_leaf_element.exit, label %41

41:                                               ; preds = %40
  %42 = trunc i64 %8 to i32
  %43 = and i32 %42, 65535
  %44 = tail call zeroext i1 @errstart_cold(i32 noundef 21, ptr noundef null) #11
  tail call void @llvm.assume(i1 %44)
  %45 = tail call i32 (ptr, ...) @errmsg_internal(ptr noundef nonnull @.str.2, i32 noundef %43) #10
  tail call void @errfinish(ptr noundef nonnull @.str.1, i32 noundef 1138, ptr noundef nonnull @__func__.range_gist_consistent_leaf_element) #10
  unreachable

range_gist_consistent_leaf_element.exit:          ; preds = %40
  %46 = tail call zeroext i1 @range_contains_elem_internal(ptr noundef %21, ptr noundef nonnull %18, i64 noundef %6) #10
  br label %63

47:                                               ; preds = %1
  switch i32 %12, label %56 [
    i32 3831, label %48
    i32 0, label %48
    i32 4537, label %52
  ]

48:                                               ; preds = %47, %47
  %49 = inttoptr i64 %6 to ptr
  %50 = tail call ptr @pg_detoast_datum(ptr noundef %49) #10
  %51 = tail call fastcc zeroext i1 @range_gist_consistent_int_range(ptr noundef %21, i16 noundef zeroext %9, ptr noundef nonnull %18, ptr noundef %50)
  br label %63

52:                                               ; preds = %47
  %53 = inttoptr i64 %6 to ptr
  %54 = tail call ptr @pg_detoast_datum(ptr noundef %53) #10
  %55 = tail call fastcc zeroext i1 @range_gist_consistent_int_multirange(ptr noundef %21, i16 noundef zeroext %9, ptr noundef nonnull %18, ptr noundef %54)
  br label %63

56:                                               ; preds = %47
  %cond.i46 = icmp eq i16 %9, 16
  br i1 %cond.i46, label %range_gist_consistent_int_element.exit, label %57

57:                                               ; preds = %56
  %58 = trunc i64 %8 to i32
  %59 = and i32 %58, 65535
  %60 = tail call zeroext i1 @errstart_cold(i32 noundef 21, ptr noundef null) #11
  tail call void @llvm.assume(i1 %60)
  %61 = tail call i32 (ptr, ...) @errmsg_internal(ptr noundef nonnull @.str.2, i32 noundef %59) #10
  tail call void @errfinish(ptr noundef nonnull @.str.1, i32 noundef 1049, ptr noundef nonnull @__func__.range_gist_consistent_int_element) #10
  unreachable

range_gist_consistent_int_element.exit:           ; preds = %56
  %62 = tail call zeroext i1 @range_contains_elem_internal(ptr noundef %21, ptr noundef nonnull %18, i64 noundef %6) #10
  br label %63

63:                                               ; preds = %48, %range_gist_consistent_int_element.exit, %52, %32, %range_gist_consistent_leaf_element.exit, %36
  %.0.in = phi i1 [ %35, %32 ], [ %39, %36 ], [ %46, %range_gist_consistent_leaf_element.exit ], [ %51, %48 ], [ %55, %52 ], [ %62, %range_gist_consistent_int_element.exit ]
  %64 = zext i1 %.0.in to i64
  ret i64 %64
}